target datalayout = "e-m:e-p270:32:32-p271:32:32-p272:64:64-i64:64-i128:128-f80:128-n8:16:32:64-S128"
target triple = "x86_64-pc-linux-gnu"

%struct.Curl_cftype = type { ptr, i32, i32, ptr, ptr, ptr, ptr, ptr, ptr, ptr, ptr, ptr, ptr, ptr, ptr }
%struct.Curl_sockaddr_ex = type { i32, i32, i32, i32, %union.anon }
%union.anon = type { %struct.Curl_sockaddr_storage }
%struct.Curl_sockaddr_storage = type { %union.anon.0 }
%union.anon.0 = type { %struct.sockaddr_storage }
%struct.sockaddr_storage = type { i16, [118 x i8], i64 }
%struct.Curl_easy = type { i32, i64, ptr, ptr, ptr, %struct.Curl_llist_element, %struct.Curl_llist_element, i32, i32, %struct.Curl_message, %struct.easy_pollset, %struct.Names, ptr, ptr, ptr, %struct.SingleRequest, %struct.UserDefined, ptr, ptr, %struct.Progress, %struct.UrlState, ptr, %struct.PureInfo, %struct.curl_tlssessioninfo }
%struct.Curl_llist_element = type { ptr, ptr, ptr }
%struct.Curl_message = type { %struct.Curl_llist_element, %struct.CURLMsg }
%struct.CURLMsg = type { i32, ptr, %union.anon.3 }
%union.anon.3 = type { ptr }
%struct.easy_pollset = type { [5 x i32], i32, [5 x i8] }
%struct.Names = type { ptr, i32 }
%struct.SingleRequest = type <{ i64, i64, i64, i64, i64, %struct.curltime, i32, i32, i32, i32, i64, i32, i32, %struct.curltime, i32, i32, ptr, i64, i64, ptr, ptr, i64, ptr, %union.anon.4, ptr, [2 x i8], i8, i16, [3 x i8] }>
%struct.curltime = type { i64, i32 }
%union.anon.4 = type { ptr }
%struct.UserDefined = type <{ ptr, ptr, ptr, ptr, ptr, ptr, i16, [6 x i8], i64, i64, i64, ptr, ptr, i64, i16, i16, [4 x i8], ptr, ptr, ptr, ptr, ptr, ptr, ptr, ptr, ptr, ptr, ptr, ptr, ptr, ptr, ptr, ptr, ptr, ptr, ptr, ptr, ptr, ptr, ptr, i32, i32, i32, i32, i64, i64, i64, i64, i64, i64, i64, i64, ptr, ptr, %struct.curl_mimepart, ptr, ptr, i64, i8, i8, i8, [5 x i8], %struct.ssl_config_data, %struct.ssl_config_data, ptr, i16, i8, i8, [4 x i8], %struct.ssl_general_config, i32, i32, i32, [4 x i8], ptr, ptr, i8, [7 x i8], i64, i8, i8, i8, i8, i32, ptr, ptr, ptr, i8, i8, [2 x i8], i32, [80 x ptr], [8 x ptr], i32, i32, i32, [4 x i8], ptr, ptr, ptr, ptr, ptr, i8, [3 x i8], i32, i32, [4 x i8], i64, %struct.Curl_data_priority, ptr, ptr, i64, ptr, ptr, ptr, ptr, ptr, i8, [3 x i8], i32, i8, i8, i56, [6 x i8] }>
%struct.curl_mimepart = type { ptr, ptr, i32, i32, ptr, ptr, ptr, ptr, ptr, ptr, ptr, ptr, ptr, ptr, ptr, i64, %struct.mime_state, ptr, %struct.mime_encoder_state, i64 }
%struct.mime_state = type { i32, ptr, i64 }
%struct.mime_encoder_state = type { i64, i64, i64, [256 x i8] }
%struct.ssl_config_data = type { %struct.ssl_primary_config, i64, ptr, ptr, ptr, ptr, ptr, ptr, ptr, i8 }
%struct.ssl_primary_config = type { ptr, ptr, ptr, ptr, ptr, ptr, ptr, ptr, ptr, ptr, ptr, ptr, i8, i32, i8, i8 }
%struct.ssl_general_config = type { i64, i32 }
%struct.Curl_data_priority = type { ptr, ptr, i32, i8 }
%struct.Progress = type { i64, i64, i64, i64, i64, i64, i32, i32, i64, i64, i64, i64, i64, i64, i64, i64, i64, i64, %struct.curltime, %struct.curltime, %struct.curltime, %struct.curltime, %struct.curltime, i64, %struct.curltime, i64, [6 x i64], [6 x %struct.curltime], i32, i8 }
%struct.UrlState = type { ptr, %struct.curltime, i64, i64, %struct.dynbuf, ptr, ptr, ptr, i64, ptr, i32, i32, i32, ptr, i64, [3 x %struct.tempbuf], i32, i32, ptr, i64, i32, ptr, %struct.digestdata, %struct.digestdata, %struct.auth, %struct.auth, %struct.Curl_async, ptr, %struct.curltime, %struct.Curl_tree, %struct.Curl_llist, [15 x %struct.time_node], ptr, i8, i64, ptr, i64, i64, %struct.Curl_data_priority, ptr, ptr, ptr, %struct.urlpieces, ptr, ptr, ptr, ptr, ptr, i64, %struct.dynbuf, %struct.Curl_llist, [2 x %struct.curl_header], ptr, i32, ptr, %struct.dynamically_allocated_data, i8, i8, i8, i8, i24 }
%struct.tempbuf = type { %struct.dynbuf, i32, i8 }
%struct.digestdata = type { ptr, ptr, ptr, ptr, ptr, ptr, i32, i8, i8 }
%struct.auth = type { i64, i64, i64, i8 }
%struct.Curl_async = type { ptr, ptr, ptr, ptr, i32, i32, i8 }
%struct.Curl_tree = type { ptr, ptr, ptr, ptr, %struct.curltime, ptr }
%struct.time_node = type { %struct.Curl_llist_element, %struct.curltime, i32 }
%struct.urlpieces = type { ptr, ptr, ptr, ptr, ptr, ptr, ptr, ptr }
%struct.dynbuf = type { ptr, i64, i64, i64 }
%struct.Curl_llist = type { ptr, ptr, ptr, i64 }
%struct.curl_header = type { ptr, ptr, i64, i64, i32, ptr }
%struct.dynamically_allocated_data = type { ptr, ptr, ptr, ptr, ptr, ptr, ptr, ptr, ptr, ptr, ptr, ptr, ptr, ptr }
%struct.PureInfo = type { i32, i32, i32, i64, i64, i64, i64, i64, ptr, ptr, i64, i32, [46 x i8], i32, i32, [46 x i8], i32, ptr, i32, %struct.curl_certinfo, i32, i8 }
%struct.curl_certinfo = type { i32, ptr }
%struct.curl_tlssessioninfo = type { i32, ptr }
%struct.Curl_cfilter = type { ptr, ptr, ptr, ptr, i32, i8 }
%struct.cf_socket_ctx = type { i32, %struct.Curl_sockaddr_ex, i32, %struct.bufq, [46 x i8], i32, [46 x i8], i32, %struct.curltime, %struct.curltime, %struct.curltime, i32, i8 }
%struct.bufq = type { ptr, ptr, ptr, ptr, i64, i64, i64, i32 }
%struct.pollfd = type { i32, i16, i16 }

@.str.43 = private unnamed_addr constant [34 x i8] c"is_alive: poll error, assume dead\00", align 1
@.str.44 = private unnamed_addr constant [37 x i8] c"is_alive: poll timeout, assume alive\00", align 1
@.str.45 = private unnamed_addr constant [42 x i8] c"is_alive: err/hup/etc events, assume dead\00", align 1
@.str.46 = private unnamed_addr constant [36 x i8] c"is_alive: valid events, looks alive\00", align 1

; Function Attrs: nounwind uwtable
define internal zeroext i1 @cf_socket_conn_is_alive(ptr noundef %0, ptr noundef %1, ptr noundef %2) #0 {
  %4 = alloca i1, align 1
  %5 = alloca ptr, align 8
  %6 = alloca ptr, align 8
  %7 = alloca ptr, align 8
  %8 = alloca ptr, align 8
  %9 = alloca [1 x %struct.pollfd], align 4
  %10 = alloca i32, align 4
  store ptr %0, ptr %5, align 8
  store ptr %1, ptr %6, align 8
  store ptr %2, ptr %7, align 8
  %11 = load ptr, ptr %5, align 8
  %12 = getelementptr inbounds %struct.Curl_cfilter, ptr %11, i32 0, i32 2
  %13 = load ptr, ptr %12, align 8
  store ptr %13, ptr %8, align 8
  %14 = load ptr, ptr %7, align 8
  store i8 0, ptr %14, align 1
  %15 = load ptr, ptr %8, align 8
  %16 = icmp ne ptr %15, null
  br i1 %16, label %17, label %22

17:                                               ; preds = %3
  %18 = load ptr, ptr %8, align 8
  %19 = getelementptr inbounds %struct.cf_socket_ctx, ptr %18, i32 0, i32 2
  %20 = load i32, ptr %19, align 8
  %21 = icmp eq i32 %20, -1
  br i1 %21, label %22, label %23

22:                                               ; preds = %17, %3
  store i1 false, ptr %4, align 1
  br label %162

23:                                               ; preds = %17
  %24 = load ptr, ptr %8, align 8
  %25 = getelementptr inbounds %struct.cf_socket_ctx, ptr %24, i32 0, i32 2
  %26 = load i32, ptr %25, align 8
  %27 = getelementptr inbounds [1 x %struct.pollfd], ptr %9, i64 0, i64 0
  %28 = getelementptr inbounds %struct.pollfd, ptr %27, i32 0, i32 0
  store i32 %26, ptr %28, align 4
  %29 = getelementptr inbounds [1 x %struct.pollfd], ptr %9, i64 0, i64 0
  %30 = getelementptr inbounds %struct.pollfd, ptr %29, i32 0, i32 1
  store i16 195, ptr %30, align 4
  %31 = getelementptr inbounds [1 x %struct.pollfd], ptr %9, i64 0, i64 0
  %32 = getelementptr inbounds %struct.pollfd, ptr %31, i32 0, i32 2
  store i16 0, ptr %32, align 2
  %33 = getelementptr inbounds [1 x %struct.pollfd], ptr %9, i64 0, i64 0
  %34 = call i32 @Curl_poll(ptr noundef %33, i32 noundef 1, i64 noundef 0)
  store i32 %34, ptr %10, align 4
  %35 = load i32, ptr %10, align 4
  %36 = icmp slt i32 %35, 0
  br i1 %36, label %37, label %65

37:                                               ; preds = %23
  br label %38

38:                                               ; preds = %37
  %39 = load ptr, ptr %6, align 8
  %40 = icmp ne ptr %39, null
  br i1 %40, label %41, label %63

41:                                               ; preds = %38
  %42 = load ptr, ptr %6, align 8
  %43 = getelementptr inbounds %struct.Curl_easy, ptr %42, i32 0, i32 16
  %44 = getelementptr inbounds %struct.UserDefined, ptr %43, i32 0, i32 122
  %45 = load i64, ptr %44, align 2
  %46 = lshr i64 %45, 28
  %47 = and i64 %46, 1
  %48 = trunc i64 %47 to i32
  %49 = icmp ne i32 %48, 0
  br i1 %49, label %50, label %63

50:                                               ; preds = %41
  %51 = load ptr, ptr %5, align 8
  %52 = icmp ne ptr %51, null
  br i1 %52, label %53, label %63

53:                                               ; preds = %50
  %54 = load ptr, ptr %5, align 8
  %55 = getelementptr inbounds %struct.Curl_cfilter, ptr %54, i32 0, i32 0
  %56 = load ptr, ptr %55, align 8
  %57 = getelementptr inbounds %struct.Curl_cftype, ptr %56, i32 0, i32 2
  %58 = load i32, ptr %57, align 4
  %59 = icmp sge i32 %58, 1
  br i1 %59, label %60, label %63

60:                                               ; preds = %53
  %61 = load ptr, ptr %6, align 8
  %62 = load ptr, ptr %5, align 8
  call void (ptr, ptr, ptr, ...) @Curl_trc_cf_infof(ptr noundef %61, ptr noundef %62, ptr noundef @.str.43)
  br label %63

63:                                               ; preds = %60, %53, %50, %41, %38
  br label %64

64:                                               ; preds = %63
  store i1 false, ptr %4, align 1
  br label %162

65:                                               ; preds = %23
  %66 = load i32, ptr %10, align 4
  %67 = icmp eq i32 %66, 0
  br i1 %67, label %68, label %96

68:                                               ; preds = %65
  br label %69

69:                                               ; preds = %68
  %70 = load ptr, ptr %6, align 8
  %71 = icmp ne ptr %70, null
  br i1 %71, label %72, label %94

72:                                               ; preds = %69
  %73 = load ptr, ptr %6, align 8
  %74 = getelementptr inbounds %struct.Curl_easy, ptr %73, i32 0, i32 16
  %75 = getelementptr inbounds %struct.UserDefined, ptr %74, i32 0, i32 122
  %76 = load i64, ptr %75, align 2
  %77 = lshr i64 %76, 28
  %78 = and i64 %77, 1
  %79 = trunc i64 %78 to i32
  %80 = icmp ne i32 %79, 0
  br i1 %80, label %81, label %94

81:                                               ; preds = %72
  %82 = load ptr, ptr %5, align 8
  %83 = icmp ne ptr %82, null
  br i1 %83, label %84, label %94

84:                                               ; preds = %81
  %85 = load ptr, ptr %5, align 8
  %86 = getelementptr inbounds %struct.Curl_cfilter, ptr %85, i32 0, i32 0
  %87 = load ptr, ptr %86, align 8
  %88 = getelementptr inbounds %struct.Curl_cftype, ptr %87, i32 0, i32 2
  %89 = load i32, ptr %88, align 4
  %90 = icmp sge i32 %89, 1
  br i1 %90, label %91, label %94

91:                                               ; preds = %84
  %92 = load ptr, ptr %6, align 8
  %93 = load ptr, ptr %5, align 8
  call void (ptr, ptr, ptr, ...) @Curl_trc_cf_infof(ptr noundef %92, ptr noundef %93, ptr noundef @.str.44)
  br label %94

94:                                               ; preds = %91, %84, %81, %72, %69
  br label %95

95:                                               ; preds = %94
  store i1 true, ptr %4, align 1
  br label %162

96:                                               ; preds = %65
  %97 = getelementptr inbounds [1 x %struct.pollfd], ptr %9, i64 0, i64 0
  %98 = getelementptr inbounds %struct.pollfd, ptr %97, i32 0, i32 2
  %99 = load i16, ptr %98, align 2
  %100 = sext i16 %99 to i32
  %101 = and i32 %100, 58
  %102 = icmp ne i32 %101, 0
  br i1 %102, label %103, label %131

103:                                              ; preds = %96
  br label %104

104:                                              ; preds = %103
  %105 = load ptr, ptr %6, align 8
  %106 = icmp ne ptr %105, null
  br i1 %106, label %107, label %129

107:                                              ; preds = %104
  %108 = load ptr, ptr %6, align 8
  %109 = getelementptr inbounds %struct.Curl_easy, ptr %108, i32 0, i32 16
  %110 = getelementptr inbounds %struct.UserDefined, ptr %109, i32 0, i32 122
  %111 = load i64, ptr %110, align 2
  %112 = lshr i64 %111, 28
  %113 = and i64 %112, 1
  %114 = trunc i64 %113 to i32
  %115 = icmp ne i32 %114, 0
  br i1 %115, label %116, label %129

116:                                              ; preds = %107
  %117 = load ptr, ptr %5, align 8
  %118 = icmp ne ptr %117, null
  br i1 %118, label %119, label %129

119:                                              ; preds = %116
  %120 = load ptr, ptr %5, align 8
  %121 = getelementptr inbounds %struct.Curl_cfilter, ptr %120, i32 0, i32 0
  %122 = load ptr, ptr %121, align 8
  %123 = getelementptr inbounds %struct.Curl_cftype, ptr %122, i32 0, i32 2
  %124 = load i32, ptr %123, align 4
  %125 = icmp sge i32 %124, 1
  br i1 %125, label %126, label %129

126:                                              ; preds = %119
  %127 = load ptr, ptr %6, align 8
  %128 = load ptr, ptr %5, align 8
  call void (ptr, ptr, ptr, ...) @Curl_trc_cf_infof(ptr noundef %127, ptr noundef %128, ptr noundef @.str.45)
  br label %129

129:                                              ; preds = %126, %119, %116, %107, %104
  br label %130

130:                                              ; preds = %129
  store i1 false, ptr %4, align 1
  br label %162

131:                                              ; preds = %96
  br label %132

132:                                              ; preds = %131
  br label %133

133:                                              ; preds = %132
  br label %134

134:                                              ; preds = %133
  %135 = load ptr, ptr %6, align 8
  %136 = icmp ne ptr %135, null
  br i1 %136, label %137, label %159

137:                                              ; preds = %134
  %138 = load ptr, ptr %6, align 8
  %139 = getelementptr inbounds %struct.Curl_easy, ptr %138, i32 0, i32 16
  %140 = getelementptr inbounds %struct.UserDefined, ptr %139, i32 0, i32 122
  %141 = load i64, ptr %140, align 2
  %142 = lshr i64 %141, 28
  %143 = and i64 %142, 1
  %144 = trunc i64 %143 to i32
  %145 = icmp ne i32 %144, 0
  br i1 %145, label %146, label %159

146:                                              ; preds = %137
  %147 = load ptr, ptr %5, align 8
  %148 = icmp ne ptr %147, null
  br i1 %148, label %149, label %159

149:                                              ; preds = %146
  %150 = load ptr, ptr %5, align 8
  %151 = getelementptr inbounds %struct.Curl_cfilter, ptr %150, i32 0, i32 0
  %152 = load ptr, ptr %151, align 8
  %153 = getelementptr inbounds %struct.Curl_cftype, ptr %152, i32 0, i32 2
  %154 = load i32, ptr %153, align 4
  %155 = icmp sge i32 %154, 1
  br i1 %155, label %156, label %159

156:                                              ; preds = %149
  %157 = load ptr, ptr %6, align 8
  %158 = load ptr, ptr %5, align 8
  call void (ptr, ptr, ptr, ...) @Curl_trc_cf_infof(ptr noundef %157, ptr noundef %158, ptr noundef @.str.46)
  br label %159

159:                                              ; preds = %156, %149, %146, %137, %134
  br label %160

160:                                              ; preds = %159
  %161 = load ptr, ptr %7, align 8
  store i8 1, ptr %161, align 1
  store i1 true, ptr %4, align 1
  br label %162

162:                                              ; preds = %160, %130, %95, %64, %22
  %163 = load i1, ptr %4, align 1
  ret i1 %163
}