; Function Attrs: nounwind uwtable
define internal noundef zeroext i1 @cf_socket_conn_is_alive(ptr noundef %0, ptr noundef %1, ptr noundef writeonly captures(none) initializes((0, 1)) %2) #2 {
  %4 = alloca [1 x %struct.pollfd], align 4
  %5 = getelementptr inbounds nuw i8, ptr %0, i64 16
  %6 = load ptr, ptr %5, align 8
  store i8 0, ptr %2, align 1
  %.not = icmp eq ptr %6, null
  br i1 %.not, label %66, label %7

7:                                                ; preds = %3
  %8 = getelementptr inbounds nuw i8, ptr %6, i64 152
  %9 = load i32, ptr %8, align 8
  %10 = icmp eq i32 %9, -1
  br i1 %10, label %66, label %11

11:                                               ; preds = %7
  store i32 %9, ptr %4, align 4
  %12 = getelementptr inbounds nuw i8, ptr %4, i64 4
  store i16 195, ptr %12, align 4
  %13 = getelementptr inbounds nuw i8, ptr %4, i64 6
  store i16 0, ptr %13, align 2
  %14 = call i32 @Curl_poll(ptr noundef nonnull %4, i32 noundef 1, i64 noundef 0) #13
  %15 = icmp slt i32 %14, 0
  br i1 %15, label %16, label %27

16:                                               ; preds = %11
  %.not51 = icmp eq ptr %1, null
  br i1 %.not51, label %66, label %17

17:                                               ; preds = %16
  %18 = getelementptr inbounds nuw i8, ptr %1, i64 2642
  %19 = load i64, ptr %18, align 2
  %20 = and i64 %19, 268435456
  %.not55 = icmp eq i64 %20, 0
  br i1 %.not55, label %66, label %21

21:                                               ; preds = %17
  %22 = load ptr, ptr %0, align 8
  %23 = getelementptr inbounds nuw i8, ptr %22, i64 12
  %24 = load i32, ptr %23, align 4
  %25 = icmp sgt i32 %24, 0
  br i1 %25, label %26, label %66

26:                                               ; preds = %21
  call void (ptr, ptr, ptr, ...) @Curl_trc_cf_infof(ptr noundef nonnull %1, ptr noundef nonnull %0, ptr noundef nonnull @.str.43) #13
  br label %66

27:                                               ; preds = %11
  %28 = icmp eq i32 %14, 0
  br i1 %28, label %29, label %40

29:                                               ; preds = %27
  %.not50 = icmp eq ptr %1, null
  br i1 %.not50, label %66, label %30

30:                                               ; preds = %29
  %31 = getelementptr inbounds nuw i8, ptr %1, i64 2642
  %32 = load i64, ptr %31, align 2
  %33 = and i64 %32, 268435456
  %.not54 = icmp eq i64 %33, 0
  br i1 %.not54, label %66, label %34

34:                                               ; preds = %30
  %35 = load ptr, ptr %0, align 8
  %36 = getelementptr inbounds nuw i8, ptr %35, i64 12
  %37 = load i32, ptr %36, align 4
  %38 = icmp sgt i32 %37, 0
  br i1 %38, label %39, label %66

39:                                               ; preds = %34
  call void (ptr, ptr, ptr, ...) @Curl_trc_cf_infof(ptr noundef nonnull %1, ptr noundef nonnull %0, ptr noundef nonnull @.str.44) #13
  br label %66

40:                                               ; preds = %27
  %41 = load i16, ptr %13, align 2
  %42 = and i16 %41, 58
  %.not47 = icmp eq i16 %42, 0
  %.not48 = icmp eq ptr %1, null
  br i1 %.not47, label %54, label %43

43:                                               ; preds = %40
  br i1 %.not48, label %66, label %44

44:                                               ; preds = %43
  %45 = getelementptr inbounds nuw i8, ptr %1, i64 2642
  %46 = load i64, ptr %45, align 2
  %47 = and i64 %46, 268435456
  %.not52 = icmp eq i64 %47, 0
  br i1 %.not52, label %66, label %48

48:                                               ; preds = %44
  %49 = load ptr, ptr %0, align 8
  %50 = getelementptr inbounds nuw i8, ptr %49, i64 12
  %51 = load i32, ptr %50, align 4
  %52 = icmp sgt i32 %51, 0
  br i1 %52, label %53, label %66

53:                                               ; preds = %48
  call void (ptr, ptr, ptr, ...) @Curl_trc_cf_infof(ptr noundef nonnull %1, ptr noundef nonnull %0, ptr noundef nonnull @.str.45) #13
  br label %66

54:                                               ; preds = %40
  br i1 %.not48, label %65, label %55

55:                                               ; preds = %54
  %56 = getelementptr inbounds nuw i8, ptr %1, i64 2642
  %57 = load i64, ptr %56, align 2
  %58 = and i64 %57, 268435456
  %.not53 = icmp eq i64 %58, 0
  br i1 %.not53, label %65, label %59

59:                                               ; preds = %55
  %60 = load ptr, ptr %0, align 8
  %61 = getelementptr inbounds nuw i8, ptr %60, i64 12
  %62 = load i32, ptr %61, align 4
  %63 = icmp sgt i32 %62, 0
  br i1 %63, label %64, label %65

64:                                               ; preds = %59
  call void (ptr, ptr, ptr, ...) @Curl_trc_cf_infof(ptr noundef nonnull %1, ptr noundef nonnull %0, ptr noundef nonnull @.str.46) #13
  br label %65

65:                                               ; preds = %54, %55, %59, %64
  store i8 1, ptr %2, align 1
  br label %66

66:                                               ; preds = %53, %48, %44, %43, %39, %34, %30, %29, %26, %21, %17, %16, %3, %7, %65
  %.0 = phi i1 [ true, %65 ], [ false, %7 ], [ false, %3 ], [ false, %16 ], [ false, %17 ], [ false, %21 ], [ false, %26 ], [ true, %29 ], [ true, %30 ], [ true, %34 ], [ true, %39 ], [ false, %43 ], [ false, %44 ], [ false, %48 ], [ false, %53 ]
  ret i1 %.0
}